target datalayout = "e-m:e-p270:32:32-p271:32:32-p272:64:64-i64:64-i128:128-f80:128-n8:16:32:64-S128"
target triple = "x86_64-pc-linux-gnu"

; Function Attrs: nounwind uwtable
define i32 @evutil_set_tcp_keepalive(i32 noundef %0, i32 noundef %1, i32 noundef %2) #0 {
  %4 = alloca i32, align 4
  %5 = alloca i32, align 4
  %6 = alloca i32, align 4
  %7 = alloca i32, align 4
  %8 = alloca i32, align 4
  %9 = alloca i32, align 4
  %10 = alloca i32, align 4
  %11 = alloca i32, align 4
  store i32 %0, ptr %5, align 4
  store i32 %1, ptr %6, align 4
  store i32 %2, ptr %7, align 4
  call void @llvm.lifetime.start.p0(i64 4, ptr %8) #11
  call void @llvm.lifetime.start.p0(i64 4, ptr %9) #11
  call void @llvm.lifetime.start.p0(i64 4, ptr %10) #11
  %12 = load i32, ptr %7, align 4
  %13 = icmp sle i32 %12, 0
  br i1 %13, label %14, label %15

14:                                               ; preds = %3
  store i32 0, ptr %4, align 4
  store i32 1, ptr %11, align 4
  br label %47

15:                                               ; preds = %3
  %16 = load i32, ptr %5, align 4
  %17 = call i32 @setsockopt(i32 noundef %16, i32 noundef 1, i32 noundef 9, ptr noundef %6, i32 noundef 4) #11
  %18 = icmp ne i32 %17, 0
  br i1 %18, label %19, label %20

19:                                               ; preds = %15
  store i32 -1, ptr %4, align 4
  store i32 1, ptr %11, align 4
  br label %47

20:                                               ; preds = %15
  %21 = load i32, ptr %6, align 4
  %22 = icmp ne i32 %21, 0
  br i1 %22, label %24, label %23

23:                                               ; preds = %20
  store i32 0, ptr %4, align 4
  store i32 1, ptr %11, align 4
  br label %47

24:                                               ; preds = %20
  %25 = load i32, ptr %7, align 4
  store i32 %25, ptr %8, align 4
  %26 = load i32, ptr %5, align 4
  %27 = call i32 @setsockopt(i32 noundef %26, i32 noundef 6, i32 noundef 4, ptr noundef %8, i32 noundef 4) #11
  %28 = icmp ne i32 %27, 0
  br i1 %28, label %29, label %30

29:                                               ; preds = %24
  store i32 -1, ptr %4, align 4
  store i32 1, ptr %11, align 4
  br label %47

30:                                               ; preds = %24
  %31 = load i32, ptr %7, align 4
  %32 = sdiv i32 %31, 3
  store i32 %32, ptr %9, align 4
  %33 = load i32, ptr %9, align 4
  %34 = icmp eq i32 %33, 0
  br i1 %34, label %35, label %36

35:                                               ; preds = %30
  store i32 1, ptr %9, align 4
  br label %36

36:                                               ; preds = %35, %30
  %37 = load i32, ptr %5, align 4
  %38 = call i32 @setsockopt(i32 noundef %37, i32 noundef 6, i32 noundef 5, ptr noundef %9, i32 noundef 4) #11
  %39 = icmp ne i32 %38, 0
  br i1 %39, label %40, label %41

40:                                               ; preds = %36
  store i32 -1, ptr %4, align 4
  store i32 1, ptr %11, align 4
  br label %47

41:                                               ; preds = %36
  store i32 3, ptr %10, align 4
  %42 = load i32, ptr %5, align 4
  %43 = call i32 @setsockopt(i32 noundef %42, i32 noundef 6, i32 noundef 6, ptr noundef %10, i32 noundef 4) #11
  %44 = icmp ne i32 %43, 0
  br i1 %44, label %45, label %46

45:                                               ; preds = %41
  store i32 -1, ptr %4, align 4
  store i32 1, ptr %11, align 4
  br label %47

46:                                               ; preds = %41
  store i32 0, ptr %4, align 4
  store i32 1, ptr %11, align 4
  br label %47

47:                                               ; preds = %46, %45, %40, %29, %23, %19, %14
  call void @llvm.lifetime.end.p0(i64 4, ptr %10) #11
  call void @llvm.lifetime.end.p0(i64 4, ptr %9) #11
  call void @llvm.lifetime.end.p0(i64 4, ptr %8) #11
  %48 = load i32, ptr %4, align 4
  ret i32 %48
}