; Function Attrs: nounwind uwtable
define range(i32 -1, 1) i32 @evutil_set_tcp_keepalive(i32 noundef %0, i32 noundef %1, i32 noundef %2) local_unnamed_addr #0 {
  %4 = alloca i32, align 4
  %5 = alloca i32, align 4
  %6 = alloca i32, align 4
  %7 = alloca i32, align 4
  store i32 %1, ptr %4, align 4
  call void @llvm.lifetime.start.p0(i64 4, ptr nonnull %5) #30
  call void @llvm.lifetime.start.p0(i64 4, ptr nonnull %6) #30
  call void @llvm.lifetime.start.p0(i64 4, ptr nonnull %7) #30
  %8 = icmp slt i32 %2, 1
  br i1 %8, label %21, label %9

9:                                                ; preds = %3
  %10 = call i32 @setsockopt(i32 noundef %0, i32 noundef 1, i32 noundef 9, ptr noundef nonnull %4, i32 noundef 4) #30
  %.not = icmp eq i32 %10, 0
  br i1 %.not, label %11, label %21

11:                                               ; preds = %9
  %12 = load i32, ptr %4, align 4
  %.not9 = icmp eq i32 %12, 0
  br i1 %.not9, label %21, label %13

13:                                               ; preds = %11
  store i32 %2, ptr %5, align 4
  %14 = call i32 @setsockopt(i32 noundef %0, i32 noundef 6, i32 noundef 4, ptr noundef nonnull %5, i32 noundef 4) #30
  %.not10 = icmp eq i32 %14, 0
  br i1 %.not10, label %15, label %21

15:                                               ; preds = %13
  %16 = udiv i32 %2, 3
  %17 = icmp samesign ult i32 %2, 3
  %spec.store.select = select i1 %17, i32 1, i32 %16
  store i32 %spec.store.select, ptr %6, align 4
  %18 = call i32 @setsockopt(i32 noundef %0, i32 noundef 6, i32 noundef 5, ptr noundef nonnull %6, i32 noundef 4) #30
  %.not11 = icmp eq i32 %18, 0
  br i1 %.not11, label %19, label %21

19:                                               ; preds = %15
  store i32 3, ptr %7, align 4
  %20 = call i32 @setsockopt(i32 noundef %0, i32 noundef 6, i32 noundef 6, ptr noundef nonnull %7, i32 noundef 4) #30
  %.not12 = icmp ne i32 %20, 0
  %. = sext i1 %.not12 to i32
  br label %21

21:                                               ; preds = %19, %15, %13, %11, %9, %3
  %.0 = phi i32 [ 0, %3 ], [ -1, %9 ], [ 0, %11 ], [ -1, %13 ], [ -1, %15 ], [ %., %19 ]
  call void @llvm.lifetime.end.p0(i64 4, ptr nonnull %7) #30
  call void @llvm.lifetime.end.p0(i64 4, ptr nonnull %6) #30
  call void @llvm.lifetime.end.p0(i64 4, ptr nonnull %5) #30
  ret i32 %.0
}